
LCD.elf:     file format elf32-avr

Sections:
Idx Name          Size      VMA       LMA       File off  Algn
  0 .text         0000047c  00000000  00000000  00000074  2**1
                  CONTENTS, ALLOC, LOAD, READONLY, CODE
  1 .data         0000000e  00800060  0000047c  000004f0  2**0
                  CONTENTS, ALLOC, LOAD, DATA

Disassembly of section .text:

00000000 <__vectors>:
   0:	0c 94 2a 00 	jmp	0x54	; 0x54 <__ctors_end>
   4:	0c 94 3f 00 	jmp	0x7e	; 0x7e <__bad_interrupt>
   8:	0c 94 3f 00 	jmp	0x7e	; 0x7e <__bad_interrupt>
   c:	0c 94 3f 00 	jmp	0x7e	; 0x7e <__bad_interrupt>
  10:	0c 94 3f 00 	jmp	0x7e	; 0x7e <__bad_interrupt>
  14:	0c 94 3f 00 	jmp	0x7e	; 0x7e <__bad_interrupt>
  18:	0c 94 3f 00 	jmp	0x7e	; 0x7e <__bad_interrupt>
  1c:	0c 94 3f 00 	jmp	0x7e	; 0x7e <__bad_interrupt>
  20:	0c 94 3f 00 	jmp	0x7e	; 0x7e <__bad_interrupt>
  24:	0c 94 3f 00 	jmp	0x7e	; 0x7e <__bad_interrupt>
  28:	0c 94 3f 00 	jmp	0x7e	; 0x7e <__bad_interrupt>
  2c:	0c 94 3f 00 	jmp	0x7e	; 0x7e <__bad_interrupt>
  30:	0c 94 3f 00 	jmp	0x7e	; 0x7e <__bad_interrupt>
  34:	0c 94 3f 00 	jmp	0x7e	; 0x7e <__bad_interrupt>
  38:	0c 94 3f 00 	jmp	0x7e	; 0x7e <__bad_interrupt>
  3c:	0c 94 3f 00 	jmp	0x7e	; 0x7e <__bad_interrupt>
  40:	0c 94 3f 00 	jmp	0x7e	; 0x7e <__bad_interrupt>
  44:	0c 94 3f 00 	jmp	0x7e	; 0x7e <__bad_interrupt>
  48:	0c 94 3f 00 	jmp	0x7e	; 0x7e <__bad_interrupt>
  4c:	0c 94 3f 00 	jmp	0x7e	; 0x7e <__bad_interrupt>
  50:	0c 94 3f 00 	jmp	0x7e	; 0x7e <__bad_interrupt>

00000054 <__ctors_end>:
  54:	11 24       	eor	r1, r1
  56:	1f be       	out	0x3f, r1	; 63
  58:	cf e5       	ldi	r28, 0x5F	; 95
  5a:	d8 e0       	ldi	r29, 0x08	; 8
  5c:	de bf       	out	0x3e, r29	; 62
  5e:	cd bf       	out	0x3d, r28	; 61

00000060 <__do_copy_data>:
  60:	10 e0       	ldi	r17, 0x00	; 0
  62:	a0 e6       	ldi	r26, 0x60	; 96
  64:	b0 e0       	ldi	r27, 0x00	; 0
  66:	ec e7       	ldi	r30, 0x7C	; 124
  68:	f4 e0       	ldi	r31, 0x04	; 4
  6a:	02 c0       	rjmp	.+4      	; 0x70 <.do_copy_data_start>

0000006c <.do_copy_data_loop>:
  6c:	05 90       	lpm	r0, Z+
  6e:	0d 92       	st	X+, r0

00000070 <.do_copy_data_start>:
  70:	ae 36       	cpi	r26, 0x6E	; 110
  72:	b1 07       	cpc	r27, r17
  74:	d9 f7       	brne	.-10     	; 0x6c <.do_copy_data_loop>
  76:	0e 94 16 02 	call	0x42c	; 0x42c <main>
  7a:	0c 94 3c 02 	jmp	0x478	; 0x478 <_exit>

0000007e <__bad_interrupt>:
  7e:	0c 94 00 00 	jmp	0	; 0x0 <__vectors>

00000082 <DIO_VoidSetPinDirection>:
  82:	41 30       	cpi	r20, 0x01	; 1
  84:	b1 f5       	brne	.+108    	; 0xf2 <DIO_VoidSetPinDirection+0x70>
  86:	81 30       	cpi	r24, 0x01	; 1
  88:	99 f0       	breq	.+38     	; 0xb0 <DIO_VoidSetPinDirection+0x2e>
  8a:	81 30       	cpi	r24, 0x01	; 1
  8c:	30 f0       	brcs	.+12     	; 0x9a <DIO_VoidSetPinDirection+0x18>
  8e:	82 30       	cpi	r24, 0x02	; 2
  90:	d1 f0       	breq	.+52     	; 0xc6 <DIO_VoidSetPinDirection+0x44>
  92:	83 30       	cpi	r24, 0x03	; 3
  94:	09 f0       	breq	.+2      	; 0x98 <DIO_VoidSetPinDirection+0x16>
  96:	67 c0       	rjmp	.+206    	; 0x166 <DIO_VoidSetPinDirection+0xe4>
  98:	21 c0       	rjmp	.+66     	; 0xdc <DIO_VoidSetPinDirection+0x5a>
  9a:	2a b3       	in	r18, 0x1a	; 26
  9c:	81 e0       	ldi	r24, 0x01	; 1
  9e:	90 e0       	ldi	r25, 0x00	; 0
  a0:	02 c0       	rjmp	.+4      	; 0xa6 <DIO_VoidSetPinDirection+0x24>
  a2:	88 0f       	add	r24, r24
  a4:	99 1f       	adc	r25, r25
  a6:	6a 95       	dec	r22
  a8:	e2 f7       	brpl	.-8      	; 0xa2 <DIO_VoidSetPinDirection+0x20>
  aa:	28 2b       	or	r18, r24
  ac:	2a bb       	out	0x1a, r18	; 26
  ae:	08 95       	ret
  b0:	27 b3       	in	r18, 0x17	; 23
  b2:	81 e0       	ldi	r24, 0x01	; 1
  b4:	90 e0       	ldi	r25, 0x00	; 0
  b6:	02 c0       	rjmp	.+4      	; 0xbc <DIO_VoidSetPinDirection+0x3a>
  b8:	88 0f       	add	r24, r24
  ba:	99 1f       	adc	r25, r25
  bc:	6a 95       	dec	r22
  be:	e2 f7       	brpl	.-8      	; 0xb8 <DIO_VoidSetPinDirection+0x36>
  c0:	28 2b       	or	r18, r24
  c2:	27 bb       	out	0x17, r18	; 23
  c4:	08 95       	ret
  c6:	24 b3       	in	r18, 0x14	; 20
  c8:	81 e0       	ldi	r24, 0x01	; 1
  ca:	90 e0       	ldi	r25, 0x00	; 0
  cc:	02 c0       	rjmp	.+4      	; 0xd2 <DIO_VoidSetPinDirection+0x50>
  ce:	88 0f       	add	r24, r24
  d0:	99 1f       	adc	r25, r25
  d2:	6a 95       	dec	r22
  d4:	e2 f7       	brpl	.-8      	; 0xce <DIO_VoidSetPinDirection+0x4c>
  d6:	28 2b       	or	r18, r24
  d8:	24 bb       	out	0x14, r18	; 20
  da:	08 95       	ret
  dc:	21 b3       	in	r18, 0x11	; 17
  de:	81 e0       	ldi	r24, 0x01	; 1
  e0:	90 e0       	ldi	r25, 0x00	; 0
  e2:	02 c0       	rjmp	.+4      	; 0xe8 <DIO_VoidSetPinDirection+0x66>
  e4:	88 0f       	add	r24, r24
  e6:	99 1f       	adc	r25, r25
  e8:	6a 95       	dec	r22
  ea:	e2 f7       	brpl	.-8      	; 0xe4 <DIO_VoidSetPinDirection+0x62>
  ec:	28 2b       	or	r18, r24
  ee:	21 bb       	out	0x11, r18	; 17
  f0:	08 95       	ret
  f2:	44 23       	and	r20, r20
  f4:	c1 f5       	brne	.+112    	; 0x166 <DIO_VoidSetPinDirection+0xe4>
  f6:	81 30       	cpi	r24, 0x01	; 1
  f8:	99 f0       	breq	.+38     	; 0x120 <DIO_VoidSetPinDirection+0x9e>
  fa:	81 30       	cpi	r24, 0x01	; 1
  fc:	28 f0       	brcs	.+10     	; 0x108 <DIO_VoidSetPinDirection+0x86>
  fe:	82 30       	cpi	r24, 0x02	; 2
 100:	d9 f0       	breq	.+54     	; 0x138 <DIO_VoidSetPinDirection+0xb6>
 102:	83 30       	cpi	r24, 0x03	; 3
 104:	81 f5       	brne	.+96     	; 0x166 <DIO_VoidSetPinDirection+0xe4>
 106:	24 c0       	rjmp	.+72     	; 0x150 <DIO_VoidSetPinDirection+0xce>
 108:	2a b3       	in	r18, 0x1a	; 26
 10a:	81 e0       	ldi	r24, 0x01	; 1
 10c:	90 e0       	ldi	r25, 0x00	; 0
 10e:	02 c0       	rjmp	.+4      	; 0x114 <DIO_VoidSetPinDirection+0x92>
 110:	88 0f       	add	r24, r24
 112:	99 1f       	adc	r25, r25
 114:	6a 95       	dec	r22
 116:	e2 f7       	brpl	.-8      	; 0x110 <DIO_VoidSetPinDirection+0x8e>
 118:	80 95       	com	r24
 11a:	82 23       	and	r24, r18
 11c:	8a bb       	out	0x1a, r24	; 26
 11e:	08 95       	ret
 120:	27 b3       	in	r18, 0x17	; 23
 122:	81 e0       	ldi	r24, 0x01	; 1
 124:	90 e0       	ldi	r25, 0x00	; 0
 126:	02 c0       	rjmp	.+4      	; 0x12c <DIO_VoidSetPinDirection+0xaa>
 128:	88 0f       	add	r24, r24
 12a:	99 1f       	adc	r25, r25
 12c:	6a 95       	dec	r22
 12e:	e2 f7       	brpl	.-8      	; 0x128 <DIO_VoidSetPinDirection+0xa6>
 130:	80 95       	com	r24
 132:	82 23       	and	r24, r18
 134:	87 bb       	out	0x17, r24	; 23
 136:	08 95       	ret
 138:	24 b3       	in	r18, 0x14	; 20
 13a:	81 e0       	ldi	r24, 0x01	; 1
 13c:	90 e0       	ldi	r25, 0x00	; 0
 13e:	02 c0       	rjmp	.+4      	; 0x144 <DIO_VoidSetPinDirection+0xc2>
 140:	88 0f       	add	r24, r24
 142:	99 1f       	adc	r25, r25
 144:	6a 95       	dec	r22
 146:	e2 f7       	brpl	.-8      	; 0x140 <DIO_VoidSetPinDirection+0xbe>
 148:	80 95       	com	r24
 14a:	82 23       	and	r24, r18
 14c:	84 bb       	out	0x14, r24	; 20
 14e:	08 95       	ret
 150:	21 b3       	in	r18, 0x11	; 17
 152:	81 e0       	ldi	r24, 0x01	; 1
 154:	90 e0       	ldi	r25, 0x00	; 0
 156:	02 c0       	rjmp	.+4      	; 0x15c <DIO_VoidSetPinDirection+0xda>
 158:	88 0f       	add	r24, r24
 15a:	99 1f       	adc	r25, r25
 15c:	6a 95       	dec	r22
 15e:	e2 f7       	brpl	.-8      	; 0x158 <DIO_VoidSetPinDirection+0xd6>
 160:	80 95       	com	r24
 162:	82 23       	and	r24, r18
 164:	81 bb       	out	0x11, r24	; 17
 166:	08 95       	ret

00000168 <DIO_VoidSetPinValue>:
 168:	41 30       	cpi	r20, 0x01	; 1
 16a:	b1 f5       	brne	.+108    	; 0x1d8 <DIO_VoidSetPinValue+0x70>
 16c:	81 30       	cpi	r24, 0x01	; 1
 16e:	99 f0       	breq	.+38     	; 0x196 <DIO_VoidSetPinValue+0x2e>
 170:	81 30       	cpi	r24, 0x01	; 1
 172:	30 f0       	brcs	.+12     	; 0x180 <DIO_VoidSetPinValue+0x18>
 174:	82 30       	cpi	r24, 0x02	; 2
 176:	d1 f0       	breq	.+52     	; 0x1ac <DIO_VoidSetPinValue+0x44>
 178:	83 30       	cpi	r24, 0x03	; 3
 17a:	09 f0       	breq	.+2      	; 0x17e <DIO_VoidSetPinValue+0x16>
 17c:	67 c0       	rjmp	.+206    	; 0x24c <DIO_VoidSetPinValue+0xe4>
 17e:	21 c0       	rjmp	.+66     	; 0x1c2 <DIO_VoidSetPinValue+0x5a>
 180:	2b b3       	in	r18, 0x1b	; 27
 182:	81 e0       	ldi	r24, 0x01	; 1
 184:	90 e0       	ldi	r25, 0x00	; 0
 186:	02 c0       	rjmp	.+4      	; 0x18c <DIO_VoidSetPinValue+0x24>
 188:	88 0f       	add	r24, r24
 18a:	99 1f       	adc	r25, r25
 18c:	6a 95       	dec	r22
 18e:	e2 f7       	brpl	.-8      	; 0x188 <DIO_VoidSetPinValue+0x20>
 190:	28 2b       	or	r18, r24
 192:	2b bb       	out	0x1b, r18	; 27
 194:	08 95       	ret
 196:	28 b3       	in	r18, 0x18	; 24
 198:	81 e0       	ldi	r24, 0x01	; 1
 19a:	90 e0       	ldi	r25, 0x00	; 0
 19c:	02 c0       	rjmp	.+4      	; 0x1a2 <DIO_VoidSetPinValue+0x3a>
 19e:	88 0f       	add	r24, r24
 1a0:	99 1f       	adc	r25, r25
 1a2:	6a 95       	dec	r22
 1a4:	e2 f7       	brpl	.-8      	; 0x19e <DIO_VoidSetPinValue+0x36>
 1a6:	28 2b       	or	r18, r24
 1a8:	28 bb       	out	0x18, r18	; 24
 1aa:	08 95       	ret
 1ac:	25 b3       	in	r18, 0x15	; 21
 1ae:	81 e0       	ldi	r24, 0x01	; 1
 1b0:	90 e0       	ldi	r25, 0x00	; 0
 1b2:	02 c0       	rjmp	.+4      	; 0x1b8 <DIO_VoidSetPinValue+0x50>
 1b4:	88 0f       	add	r24, r24
 1b6:	99 1f       	adc	r25, r25
 1b8:	6a 95       	dec	r22
 1ba:	e2 f7       	brpl	.-8      	; 0x1b4 <DIO_VoidSetPinValue+0x4c>
 1bc:	28 2b       	or	r18, r24
 1be:	25 bb       	out	0x15, r18	; 21
 1c0:	08 95       	ret
 1c2:	22 b3       	in	r18, 0x12	; 18
 1c4:	81 e0       	ldi	r24, 0x01	; 1
 1c6:	90 e0       	ldi	r25, 0x00	; 0
 1c8:	02 c0       	rjmp	.+4      	; 0x1ce <DIO_VoidSetPinValue+0x66>
 1ca:	88 0f       	add	r24, r24
 1cc:	99 1f       	adc	r25, r25
 1ce:	6a 95       	dec	r22
 1d0:	e2 f7       	brpl	.-8      	; 0x1ca <DIO_VoidSetPinValue+0x62>
 1d2:	28 2b       	or	r18, r24
 1d4:	22 bb       	out	0x12, r18	; 18
 1d6:	08 95       	ret
 1d8:	44 23       	and	r20, r20
 1da:	c1 f5       	brne	.+112    	; 0x24c <DIO_VoidSetPinValue+0xe4>
 1dc:	81 30       	cpi	r24, 0x01	; 1
 1de:	99 f0       	breq	.+38     	; 0x206 <DIO_VoidSetPinValue+0x9e>
 1e0:	81 30       	cpi	r24, 0x01	; 1
 1e2:	28 f0       	brcs	.+10     	; 0x1ee <DIO_VoidSetPinValue+0x86>
 1e4:	82 30       	cpi	r24, 0x02	; 2
 1e6:	d9 f0       	breq	.+54     	; 0x21e <DIO_VoidSetPinValue+0xb6>
 1e8:	83 30       	cpi	r24, 0x03	; 3
 1ea:	81 f5       	brne	.+96     	; 0x24c <DIO_VoidSetPinValue+0xe4>
 1ec:	24 c0       	rjmp	.+72     	; 0x236 <DIO_VoidSetPinValue+0xce>
 1ee:	2b b3       	in	r18, 0x1b	; 27
 1f0:	81 e0       	ldi	r24, 0x01	; 1
 1f2:	90 e0       	ldi	r25, 0x00	; 0
 1f4:	02 c0       	rjmp	.+4      	; 0x1fa <DIO_VoidSetPinValue+0x92>
 1f6:	88 0f       	add	r24, r24
 1f8:	99 1f       	adc	r25, r25
 1fa:	6a 95       	dec	r22
 1fc:	e2 f7       	brpl	.-8      	; 0x1f6 <DIO_VoidSetPinValue+0x8e>
 1fe:	80 95       	com	r24
 200:	82 23       	and	r24, r18
 202:	8b bb       	out	0x1b, r24	; 27
 204:	08 95       	ret
 206:	28 b3       	in	r18, 0x18	; 24
 208:	81 e0       	ldi	r24, 0x01	; 1
 20a:	90 e0       	ldi	r25, 0x00	; 0
 20c:	02 c0       	rjmp	.+4      	; 0x212 <DIO_VoidSetPinValue+0xaa>
 20e:	88 0f       	add	r24, r24
 210:	99 1f       	adc	r25, r25
 212:	6a 95       	dec	r22
 214:	e2 f7       	brpl	.-8      	; 0x20e <DIO_VoidSetPinValue+0xa6>
 216:	80 95       	com	r24
 218:	82 23       	and	r24, r18
 21a:	88 bb       	out	0x18, r24	; 24
 21c:	08 95       	ret
 21e:	25 b3       	in	r18, 0x15	; 21
 220:	81 e0       	ldi	r24, 0x01	; 1
 222:	90 e0       	ldi	r25, 0x00	; 0
 224:	02 c0       	rjmp	.+4      	; 0x22a <DIO_VoidSetPinValue+0xc2>
 226:	88 0f       	add	r24, r24
 228:	99 1f       	adc	r25, r25
 22a:	6a 95       	dec	r22
 22c:	e2 f7       	brpl	.-8      	; 0x226 <DIO_VoidSetPinValue+0xbe>
 22e:	80 95       	com	r24
 230:	82 23       	and	r24, r18
 232:	85 bb       	out	0x15, r24	; 21
 234:	08 95       	ret
 236:	22 b3       	in	r18, 0x12	; 18
 238:	81 e0       	ldi	r24, 0x01	; 1
 23a:	90 e0       	ldi	r25, 0x00	; 0
 23c:	02 c0       	rjmp	.+4      	; 0x242 <DIO_VoidSetPinValue+0xda>
 23e:	88 0f       	add	r24, r24
 240:	99 1f       	adc	r25, r25
 242:	6a 95       	dec	r22
 244:	e2 f7       	brpl	.-8      	; 0x23e <DIO_VoidSetPinValue+0xd6>
 246:	80 95       	com	r24
 248:	82 23       	and	r24, r18
 24a:	82 bb       	out	0x12, r24	; 18
 24c:	08 95       	ret

0000024e <DIO_U8GetPinValue>:
 24e:	08 95       	ret

00000250 <DIO_VoidTogglePin>:
 250:	08 95       	ret

00000252 <DIO_VoidSetPortValue>:
 252:	81 30       	cpi	r24, 0x01	; 1
 254:	49 f0       	breq	.+18     	; 0x268 <DIO_VoidSetPortValue+0x16>
 256:	81 30       	cpi	r24, 0x01	; 1
 258:	28 f0       	brcs	.+10     	; 0x264 <DIO_VoidSetPortValue+0x12>
 25a:	82 30       	cpi	r24, 0x02	; 2
 25c:	39 f0       	breq	.+14     	; 0x26c <DIO_VoidSetPortValue+0x1a>
 25e:	83 30       	cpi	r24, 0x03	; 3
 260:	41 f4       	brne	.+16     	; 0x272 <DIO_VoidSetPortValue+0x20>
 262:	06 c0       	rjmp	.+12     	; 0x270 <DIO_VoidSetPortValue+0x1e>
 264:	6b bb       	out	0x1b, r22	; 27
 266:	08 95       	ret
 268:	68 bb       	out	0x18, r22	; 24
 26a:	08 95       	ret
 26c:	65 bb       	out	0x15, r22	; 21
 26e:	08 95       	ret
 270:	62 bb       	out	0x12, r22	; 18
 272:	08 95       	ret

00000274 <DIO_VoidSetPortDirection>:
 274:	81 30       	cpi	r24, 0x01	; 1
 276:	49 f0       	breq	.+18     	; 0x28a <DIO_VoidSetPortDirection+0x16>
 278:	81 30       	cpi	r24, 0x01	; 1
 27a:	28 f0       	brcs	.+10     	; 0x286 <DIO_VoidSetPortDirection+0x12>
 27c:	82 30       	cpi	r24, 0x02	; 2
 27e:	39 f0       	breq	.+14     	; 0x28e <DIO_VoidSetPortDirection+0x1a>
 280:	83 30       	cpi	r24, 0x03	; 3
 282:	41 f4       	brne	.+16     	; 0x294 <DIO_VoidSetPortDirection+0x20>
 284:	06 c0       	rjmp	.+12     	; 0x292 <DIO_VoidSetPortDirection+0x1e>
 286:	6a bb       	out	0x1a, r22	; 26
 288:	08 95       	ret
 28a:	67 bb       	out	0x17, r22	; 23
 28c:	08 95       	ret
 28e:	64 bb       	out	0x14, r22	; 20
 290:	08 95       	ret
 292:	61 bb       	out	0x11, r22	; 17
 294:	08 95       	ret

00000296 <LCD_VoidWriteChar>:
 296:	0f 93       	push	r16
 298:	1f 93       	push	r17
 29a:	18 2f       	mov	r17, r24
 29c:	83 e0       	ldi	r24, 0x03	; 3
 29e:	60 e0       	ldi	r22, 0x00	; 0
 2a0:	41 e0       	ldi	r20, 0x01	; 1
 2a2:	0e 94 b4 00 	call	0x168	; 0x168 <DIO_VoidSetPinValue>
 2a6:	83 e0       	ldi	r24, 0x03	; 3
 2a8:	61 e0       	ldi	r22, 0x01	; 1
 2aa:	40 e0       	ldi	r20, 0x00	; 0
 2ac:	0e 94 b4 00 	call	0x168	; 0x168 <DIO_VoidSetPinValue>
 2b0:	82 e0       	ldi	r24, 0x02	; 2
 2b2:	61 2f       	mov	r22, r17
 2b4:	0e 94 29 01 	call	0x252	; 0x252 <DIO_VoidSetPortValue>
 2b8:	83 e0       	ldi	r24, 0x03	; 3
 2ba:	62 e0       	ldi	r22, 0x02	; 2
 2bc:	41 e0       	ldi	r20, 0x01	; 1
 2be:	0e 94 b4 00 	call	0x168	; 0x168 <DIO_VoidSetPinValue>
 2c2:	00 ed       	ldi	r16, 0xD0	; 208
 2c4:	17 e0       	ldi	r17, 0x07	; 7
 2c6:	c8 01       	movw	r24, r16
 2c8:	01 97       	sbiw	r24, 0x01	; 1
 2ca:	f1 f7       	brne	.-4      	; 0x2c8 <LCD_VoidWriteChar+0x32>
 2cc:	83 e0       	ldi	r24, 0x03	; 3
 2ce:	62 e0       	ldi	r22, 0x02	; 2
 2d0:	40 e0       	ldi	r20, 0x00	; 0
 2d2:	0e 94 b4 00 	call	0x168	; 0x168 <DIO_VoidSetPinValue>
 2d6:	c8 01       	movw	r24, r16
 2d8:	01 97       	sbiw	r24, 0x01	; 1
 2da:	f1 f7       	brne	.-4      	; 0x2d8 <LCD_VoidWriteChar+0x42>
 2dc:	1f 91       	pop	r17
 2de:	0f 91       	pop	r16
 2e0:	08 95       	ret

000002e2 <LCD_VoidWriteNumber>:
 2e2:	1f 93       	push	r17
 2e4:	28 2f       	mov	r18, r24
 2e6:	10 e0       	ldi	r17, 0x00	; 0
 2e8:	3a e0       	ldi	r19, 0x0A	; 10
 2ea:	0c c0       	rjmp	.+24     	; 0x304 <LCD_VoidWriteNumber+0x22>
 2ec:	13 9f       	mul	r17, r19
 2ee:	10 2d       	mov	r17, r0
 2f0:	11 24       	eor	r1, r1
 2f2:	82 2f       	mov	r24, r18
 2f4:	6a e0       	ldi	r22, 0x0A	; 10
 2f6:	0e 94 30 02 	call	0x460	; 0x460 <__udivmodqi4>
 2fa:	19 0f       	add	r17, r25
 2fc:	82 2f       	mov	r24, r18
 2fe:	0e 94 30 02 	call	0x460	; 0x460 <__udivmodqi4>
 302:	28 2f       	mov	r18, r24
 304:	22 23       	and	r18, r18
 306:	91 f7       	brne	.-28     	; 0x2ec <LCD_VoidWriteNumber+0xa>
 308:	0d c0       	rjmp	.+26     	; 0x324 <LCD_VoidWriteNumber+0x42>
 30a:	81 2f       	mov	r24, r17
 30c:	6a e0       	ldi	r22, 0x0A	; 10
 30e:	0e 94 30 02 	call	0x460	; 0x460 <__udivmodqi4>
 312:	29 2f       	mov	r18, r25
 314:	81 2f       	mov	r24, r17
 316:	0e 94 30 02 	call	0x460	; 0x460 <__udivmodqi4>
 31a:	18 2f       	mov	r17, r24
 31c:	82 2f       	mov	r24, r18
 31e:	80 5d       	subi	r24, 0xD0	; 208
 320:	0e 94 4b 01 	call	0x296	; 0x296 <LCD_VoidWriteChar>
 324:	11 23       	and	r17, r17
 326:	89 f7       	brne	.-30     	; 0x30a <LCD_VoidWriteNumber+0x28>
 328:	1f 91       	pop	r17
 32a:	08 95       	ret

0000032c <LCD_VoidWriteString>:
 32c:	ef 92       	push	r14
 32e:	ff 92       	push	r15
 330:	1f 93       	push	r17
 332:	cf 93       	push	r28
 334:	df 93       	push	r29
 336:	ec 01       	movw	r28, r24
 338:	10 e0       	ldi	r17, 0x00	; 0
 33a:	88 ec       	ldi	r24, 0xC8	; 200
 33c:	e8 2e       	mov	r14, r24
 33e:	f1 2c       	mov	r15, r1
 340:	0a c0       	rjmp	.+20     	; 0x356 <LCD_VoidWriteString+0x2a>
 342:	0e 94 4b 01 	call	0x296	; 0x296 <LCD_VoidWriteChar>
 346:	80 ed       	ldi	r24, 0xD0	; 208
 348:	97 e0       	ldi	r25, 0x07	; 7
 34a:	f7 01       	movw	r30, r14
 34c:	31 97       	sbiw	r30, 0x01	; 1
 34e:	f1 f7       	brne	.-4      	; 0x34c <LCD_VoidWriteString+0x20>
 350:	01 97       	sbiw	r24, 0x01	; 1
 352:	d9 f7       	brne	.-10     	; 0x34a <LCD_VoidWriteString+0x1e>
 354:	1f 5f       	subi	r17, 0xFF	; 255
 356:	fe 01       	movw	r30, r28
 358:	e1 0f       	add	r30, r17
 35a:	f1 1d       	adc	r31, r1
 35c:	80 81       	ld	r24, Z
 35e:	88 23       	and	r24, r24
 360:	81 f7       	brne	.-32     	; 0x342 <LCD_VoidWriteString+0x16>
 362:	df 91       	pop	r29
 364:	cf 91       	pop	r28
 366:	1f 91       	pop	r17
 368:	ff 90       	pop	r15
 36a:	ef 90       	pop	r14
 36c:	08 95       	ret

0000036e <LCD_VoidWriteCommand>:
 36e:	0f 93       	push	r16
 370:	1f 93       	push	r17
 372:	18 2f       	mov	r17, r24
 374:	83 e0       	ldi	r24, 0x03	; 3
 376:	60 e0       	ldi	r22, 0x00	; 0
 378:	40 e0       	ldi	r20, 0x00	; 0
 37a:	0e 94 b4 00 	call	0x168	; 0x168 <DIO_VoidSetPinValue>
 37e:	83 e0       	ldi	r24, 0x03	; 3
 380:	61 e0       	ldi	r22, 0x01	; 1
 382:	40 e0       	ldi	r20, 0x00	; 0
 384:	0e 94 b4 00 	call	0x168	; 0x168 <DIO_VoidSetPinValue>
 388:	82 e0       	ldi	r24, 0x02	; 2
 38a:	61 2f       	mov	r22, r17
 38c:	0e 94 29 01 	call	0x252	; 0x252 <DIO_VoidSetPortValue>
 390:	83 e0       	ldi	r24, 0x03	; 3
 392:	62 e0       	ldi	r22, 0x02	; 2
 394:	41 e0       	ldi	r20, 0x01	; 1
 396:	0e 94 b4 00 	call	0x168	; 0x168 <DIO_VoidSetPinValue>
 39a:	00 ed       	ldi	r16, 0xD0	; 208
 39c:	17 e0       	ldi	r17, 0x07	; 7
 39e:	c8 01       	movw	r24, r16
 3a0:	01 97       	sbiw	r24, 0x01	; 1
 3a2:	f1 f7       	brne	.-4      	; 0x3a0 <LCD_VoidWriteCommand+0x32>
 3a4:	83 e0       	ldi	r24, 0x03	; 3
 3a6:	62 e0       	ldi	r22, 0x02	; 2
 3a8:	40 e0       	ldi	r20, 0x00	; 0
 3aa:	0e 94 b4 00 	call	0x168	; 0x168 <DIO_VoidSetPinValue>
 3ae:	c8 01       	movw	r24, r16
 3b0:	01 97       	sbiw	r24, 0x01	; 1
 3b2:	f1 f7       	brne	.-4      	; 0x3b0 <LCD_VoidWriteCommand+0x42>
 3b4:	1f 91       	pop	r17
 3b6:	0f 91       	pop	r16
 3b8:	08 95       	ret

000003ba <LCD_VoidInit>:
 3ba:	0f 93       	push	r16
 3bc:	1f 93       	push	r17
 3be:	82 e0       	ldi	r24, 0x02	; 2
 3c0:	6f ef       	ldi	r22, 0xFF	; 255
 3c2:	0e 94 3a 01 	call	0x274	; 0x274 <DIO_VoidSetPortDirection>
 3c6:	83 e0       	ldi	r24, 0x03	; 3
 3c8:	60 e0       	ldi	r22, 0x00	; 0
 3ca:	41 e0       	ldi	r20, 0x01	; 1
 3cc:	0e 94 41 00 	call	0x82	; 0x82 <DIO_VoidSetPinDirection>
 3d0:	83 e0       	ldi	r24, 0x03	; 3
 3d2:	61 e0       	ldi	r22, 0x01	; 1
 3d4:	41 e0       	ldi	r20, 0x01	; 1
 3d6:	0e 94 41 00 	call	0x82	; 0x82 <DIO_VoidSetPinDirection>
 3da:	83 e0       	ldi	r24, 0x03	; 3
 3dc:	62 e0       	ldi	r22, 0x02	; 2
 3de:	41 e0       	ldi	r20, 0x01	; 1
 3e0:	0e 94 41 00 	call	0x82	; 0x82 <DIO_VoidSetPinDirection>
 3e4:	80 e9       	ldi	r24, 0x90	; 144
 3e6:	91 e0       	ldi	r25, 0x01	; 1
 3e8:	28 ec       	ldi	r18, 0xC8	; 200
 3ea:	30 e0       	ldi	r19, 0x00	; 0
 3ec:	f9 01       	movw	r30, r18
 3ee:	31 97       	sbiw	r30, 0x01	; 1
 3f0:	f1 f7       	brne	.-4      	; 0x3ee <LCD_VoidInit+0x34>
 3f2:	01 97       	sbiw	r24, 0x01	; 1
 3f4:	d9 f7       	brne	.-10     	; 0x3ec <LCD_VoidInit+0x32>
 3f6:	88 e3       	ldi	r24, 0x38	; 56
 3f8:	90 e0       	ldi	r25, 0x00	; 0
 3fa:	0e 94 b7 01 	call	0x36e	; 0x36e <LCD_VoidWriteCommand>
 3fe:	00 ed       	ldi	r16, 0xD0	; 208
 400:	17 e0       	ldi	r17, 0x07	; 7
 402:	c8 01       	movw	r24, r16
 404:	01 97       	sbiw	r24, 0x01	; 1
 406:	f1 f7       	brne	.-4      	; 0x404 <LCD_VoidInit+0x4a>
 408:	8f e0       	ldi	r24, 0x0F	; 15
 40a:	90 e0       	ldi	r25, 0x00	; 0
 40c:	0e 94 b7 01 	call	0x36e	; 0x36e <LCD_VoidWriteCommand>
 410:	c8 01       	movw	r24, r16
 412:	01 97       	sbiw	r24, 0x01	; 1
 414:	f1 f7       	brne	.-4      	; 0x412 <LCD_VoidInit+0x58>
 416:	81 e0       	ldi	r24, 0x01	; 1
 418:	90 e0       	ldi	r25, 0x00	; 0
 41a:	0e 94 b7 01 	call	0x36e	; 0x36e <LCD_VoidWriteCommand>
 41e:	80 ea       	ldi	r24, 0xA0	; 160
 420:	9f e0       	ldi	r25, 0x0F	; 15
 422:	01 97       	sbiw	r24, 0x01	; 1
 424:	f1 f7       	brne	.-4      	; 0x422 <LCD_VoidInit+0x68>
 426:	1f 91       	pop	r17
 428:	0f 91       	pop	r16
 42a:	08 95       	ret

0000042c <main>:
 42c:	df 93       	push	r29
 42e:	cf 93       	push	r28
 430:	cd b7       	in	r28, 0x3d	; 61
 432:	de b7       	in	r29, 0x3e	; 62
 434:	2e 97       	sbiw	r28, 0x0e	; 14
 436:	0f b6       	in	r0, 0x3f	; 63
 438:	f8 94       	cli
 43a:	de bf       	out	0x3e, r29	; 62
 43c:	0f be       	out	0x3f, r0	; 63
 43e:	cd bf       	out	0x3d, r28	; 61
 440:	0e 94 dd 01 	call	0x3ba	; 0x3ba <LCD_VoidInit>
 444:	de 01       	movw	r26, r28
 446:	11 96       	adiw	r26, 0x01	; 1
 448:	e0 e6       	ldi	r30, 0x60	; 96
 44a:	f0 e0       	ldi	r31, 0x00	; 0
 44c:	8e e0       	ldi	r24, 0x0E	; 14
 44e:	01 90       	ld	r0, Z+
 450:	0d 92       	st	X+, r0
 452:	81 50       	subi	r24, 0x01	; 1
 454:	e1 f7       	brne	.-8      	; 0x44e <main+0x22>
 456:	ce 01       	movw	r24, r28
 458:	01 96       	adiw	r24, 0x01	; 1
 45a:	0e 94 96 01 	call	0x32c	; 0x32c <LCD_VoidWriteString>
 45e:	ff cf       	rjmp	.-2      	; 0x45e <main+0x32>

00000460 <__udivmodqi4>:
 460:	99 1b       	sub	r25, r25
 462:	79 e0       	ldi	r23, 0x09	; 9
 464:	04 c0       	rjmp	.+8      	; 0x46e <__udivmodqi4_ep>

00000466 <__udivmodqi4_loop>:
 466:	99 1f       	adc	r25, r25
 468:	96 17       	cp	r25, r22
 46a:	08 f0       	brcs	.+2      	; 0x46e <__udivmodqi4_ep>
 46c:	96 1b       	sub	r25, r22

0000046e <__udivmodqi4_ep>:
 46e:	88 1f       	adc	r24, r24
 470:	7a 95       	dec	r23
 472:	c9 f7       	brne	.-14     	; 0x466 <__udivmodqi4_loop>
 474:	80 95       	com	r24
 476:	08 95       	ret

00000478 <_exit>:
 478:	f8 94       	cli

0000047a <__stop_program>:
 47a:	ff cf       	rjmp	.-2      	; 0x47a <__stop_program>
